(lp0
ccollections
OrderedDict
p1
((lp2
(lp3
S'tone_frequency'
p4
aF4.0
aa(lp5
S'attn'
p6
aF35.0
aa(lp7
S'duration'
p8
aF0.2
aa(lp9
S'delay'
p10
aF0.01
aa(lp11
S'RI'
p12
aS'90;20/-10'
p13
aa(lp14
S'frequencies'
p15
aS'4;48/8l'
p16
aa(lp17
S'dMod'
p18
aF50.0
aa(lp19
S'fMod'
p20
aF40.0
aa(lp21
S'RF'
p22
aF2.5
aa(lp23
S'nreps'
p24
aI1
aa(lp25
S'interstimulus_interval'
p26
aF0.8
aa(lp27
S'intertrial_interval'
p28
aF1.0
aa(lp29
S'protocol'
p30
aS'RSS'
p31
aa(lp32
S'randomize'
p33
aI00
aa(lp34
S'IntensityMode'
p35
aS'attenuation'
p36
aa(lp37
S'Voltage_Scales'
p38
a(dp39
S'Tone_V'
p40
F10.0
sS'Click_V'
p41
F5.0
sS'maxTone_dB'
p42
(dp43
S'MF1'
p44
I110
sS'EC1'
p45
F83.9
ssS'Noise_V'
p46
F2.5
sS'maxNoise_dB'
p47
(dp48
g44
I0
sg45
I0
ssS'maxClick_dB'
p49
(dp50
g44
F108.5
sg45
F79.5
ssaa(lp51
S'click_interval'
p52
aF50.0
aa(lp53
S'click_N'
p54
aI4
aa(lp55
S'click_duration'
p56
aF0.0001
aa(lp57
S'RSS_cf'
p58
aF16.0
aa(lp59
S'RSS_grouping'
p60
aI8
aa(lp61
S'RSS_octaves'
p62
aI3
aa(lp63
S'RSS_SD'
p64
aF12.0
aa(lp65
S'RSS_spacing'
p66
aI64
aa(lp67
S'FMSweep_duration'
p68
aF0.5
aa(lp69
S'FMSweep_ramptype'
p70
aS'linear'
p71
aa(lp72
S'FMSweep_f_start'
p73
aF4.0
aa(lp74
S'FMSweep_f_end'
p75
aF48.0
aa(lp76
S'CMMR_flanking_bands'
p77
aI3
aa(lp78
S'CMMR_flanking_phase'
p79
aS'comodulated'
p80
aa(lp81
S'CMMR_flanking_spacing'
p82
aF0.5
aatp83
Rp84
a(dp85
S'Trials'
p86
(lp87
(dp88
S'spl'
p89
F35.0
sS'freq'
p90
F4.0
sg30
g31
sS'Block'
p91
I0
sS'Time'
p92
S'2017.08.14 16:09:24'
p93
sa(dp94
g89
F35.0
sg90
F4.0
sg30
g31
sg91
I0
sg92
S'2017.08.14 16:09:27'
p95
sa(dp96
g89
F35.0
sg90
F4.0
sg30
g31
sg91
I0
sg92
S'2017.08.14 16:09:31'
p97
sa(dp98
g89
F35.0
sg90
F4.0
sg30
g31
sg91
I0
sg92
S'2017.08.14 16:09:33'
p99
sa(dp100
g89
F35.0
sg90
F4.0
sg30
g31
sg91
I0
sg92
S'2017.08.14 16:09:36'
p101
sa(dp102
g89
F35.0
sg90
F4.0
sg30
g31
sg91
I0
sg92
S'2017.08.14 16:09:39'
p103
sa(dp104
g89
F35.0
sg90
F4.0
sg30
g31
sg91
I0
sg92
S'2017.08.14 16:09:42'
p105
sa(dp106
g89
F35.0
sg90
F4.0
sg30
g31
sg91
I0
sg92
S'2017.08.14 16:09:46'
p107
sasS'FirstBlock'
p108
I0
sS'Params'
p109
g84
sS'StartTime'
p110
cdatetime
datetime
p111
(S'\x07\xe1\x08\x0e\x10\t\x18\tf@'
p112
tp113
Rp114
sS'savedata'
p115
I01
sa.