(lp0
ccollections
OrderedDict
p1
((lp2
(lp3
S'tone_frequency'
p4
aF4.0
aa(lp5
S'attn'
p6
aF35.0
aa(lp7
S'duration'
p8
aF0.2
aa(lp9
S'delay'
p10
aF0.01
aa(lp11
S'RI'
p12
aS'90;20/-10'
p13
aa(lp14
S'frequencies'
p15
aS'4;48/8l'
p16
aa(lp17
S'dMod'
p18
aF50.0
aa(lp19
S'fMod'
p20
aF40.0
aa(lp21
S'RF'
p22
aF2.5
aa(lp23
S'nreps'
p24
aI1
aa(lp25
S'interstimulus_interval'
p26
aF0.8
aa(lp27
S'intertrial_interval'
p28
aF1.0
aa(lp29
S'protocol'
p30
aS'FRA'
p31
aa(lp32
S'randomize'
p33
aI00
aa(lp34
S'IntensityMode'
p35
aS'attenuation'
p36
aa(lp37
S'Voltage_Scales'
p38
a(dp39
S'Tone_V'
p40
F10.0
sS'Click_V'
p41
F5.0
sS'maxTone_dB'
p42
(dp43
S'MF1'
p44
I110
sS'EC1'
p45
F83.9
ssS'Noise_V'
p46
F2.5
sS'maxNoise_dB'
p47
(dp48
g44
I0
sg45
I0
ssS'maxClick_dB'
p49
(dp50
g44
F108.5
sg45
F79.5
ssaa(lp51
S'click_interval'
p52
aF50.0
aa(lp53
S'click_N'
p54
aI4
aa(lp55
S'click_duration'
p56
aF0.0001
aa(lp57
S'RSS_cf'
p58
aF16.0
aa(lp59
S'RSS_grouping'
p60
aI8
aa(lp61
S'RSS_octaves'
p62
aI3
aa(lp63
S'RSS_SD'
p64
aF12.0
aa(lp65
S'RSS_spacing'
p66
aI64
aa(lp67
S'FMSweep_duration'
p68
aF0.5
aa(lp69
S'FMSweep_ramptype'
p70
aS'linear'
p71
aa(lp72
S'FMSweep_f_start'
p73
aF4.0
aa(lp74
S'FMSweep_f_end'
p75
aF48.0
aa(lp76
S'CMMR_flanking_bands'
p77
aI3
aa(lp78
S'CMMR_flanking_phase'
p79
aS'comodulated'
p80
aa(lp81
S'CMMR_flanking_spacing'
p82
aF0.5
aatp83
Rp84
a(dp85
S'Trials'
p86
(lp87
(dp88
S'spl'
p89
cnumpy.core.multiarray
scalar
p90
(cnumpy
dtype
p91
(S'f8'
p92
I0
I1
tp93
Rp94
(I3
S'<'
p95
NNNI-1
I-1
I0
tp96
bS'\x00\x00\x00\x00\x00\x80V@'
p97
tp98
Rp99
sS'freq'
p100
g90
(g94
S'\x00\x00\x00\x00\x00\x00\x10@'
p101
tp102
Rp103
sg30
g31
sS'Block'
p104
I0
sS'Time'
p105
S'2017.08.14 18:01:57'
p106
sa(dp107
g89
g90
(g94
S'\x00\x00\x00\x00\x00\x00T@'
p108
tp109
Rp110
sg100
g90
(g94
S'\x00\x00\x00\x00\x00\x00\x10@'
p111
tp112
Rp113
sg30
g31
sg104
I0
sg105
S'2017.08.14 18:01:59'
p114
sa(dp115
g89
g90
(g94
S'\x00\x00\x00\x00\x00\x80Q@'
p116
tp117
Rp118
sg100
g90
(g94
S'\x00\x00\x00\x00\x00\x00\x10@'
p119
tp120
Rp121
sg30
g31
sg104
I0
sg105
S'2017.08.14 18:02:02'
p122
sa(dp123
g89
g90
(g94
S'\x00\x00\x00\x00\x00\x00N@'
p124
tp125
Rp126
sg100
g90
(g94
S'\x00\x00\x00\x00\x00\x00\x10@'
p127
tp128
Rp129
sg30
g31
sg104
I0
sg105
S'2017.08.14 18:02:05'
p130
sa(dp131
g89
g90
(g94
S'\x00\x00\x00\x00\x00\x00I@'
p132
tp133
Rp134
sg100
g90
(g94
S'\x00\x00\x00\x00\x00\x00\x10@'
p135
tp136
Rp137
sg30
g31
sg104
I0
sg105
S'2017.08.14 18:02:08'
p138
sa(dp139
g89
g90
(g94
S'\x00\x00\x00\x00\x00\x00D@'
p140
tp141
Rp142
sg100
g90
(g94
S'\x00\x00\x00\x00\x00\x00\x10@'
p143
tp144
Rp145
sg30
g31
sg104
I0
sg105
S'2017.08.14 18:02:11'
p146
sa(dp147
g89
g90
(g94
S'\x00\x00\x00\x00\x00\x00>@'
p148
tp149
Rp150
sg100
g90
(g94
S'\x00\x00\x00\x00\x00\x00\x10@'
p151
tp152
Rp153
sg30
g31
sg104
I0
sg105
S'2017.08.14 18:02:14'
p154
sa(dp155
g89
g90
(g94
S'\x00\x00\x00\x00\x00\x004@'
p156
tp157
Rp158
sg100
g90
(g94
S'\x00\x00\x00\x00\x00\x00\x10@'
p159
tp160
Rp161
sg30
g31
sg104
I0
sg105
S'2017.08.14 18:02:17'
p162
sa(dp163
g89
g90
(g94
S'\x00\x00\x00\x00\x00\x80V@'
p164
tp165
Rp166
sg100
g90
(g94
S'R\x99f\xaa\xf2\xd2\x16@'
p167
tp168
Rp169
sg30
g31
sg104
I0
sg105
S'2017.08.14 18:02:19'
p170
sa(dp171
g89
g90
(g94
S'\x00\x00\x00\x00\x00\x00T@'
p172
tp173
Rp174
sg100
g90
(g94
S'R\x99f\xaa\xf2\xd2\x16@'
p175
tp176
Rp177
sg30
g31
sg104
I0
sg105
S'2017.08.14 18:02:22'
p178
sa(dp179
g89
g90
(g94
S'\x00\x00\x00\x00\x00\x80Q@'
p180
tp181
Rp182
sg100
g90
(g94
S'R\x99f\xaa\xf2\xd2\x16@'
p183
tp184
Rp185
sg30
g31
sg104
I0
sg105
S'2017.08.14 18:02:25'
p186
sa(dp187
g89
g90
(g94
S'\x00\x00\x00\x00\x00\x00N@'
p188
tp189
Rp190
sg100
g90
(g94
S'R\x99f\xaa\xf2\xd2\x16@'
p191
tp192
Rp193
sg30
g31
sg104
I0
sg105
S'2017.08.14 18:02:28'
p194
sa(dp195
g89
g90
(g94
S'\x00\x00\x00\x00\x00\x00I@'
p196
tp197
Rp198
sg100
g90
(g94
S'R\x99f\xaa\xf2\xd2\x16@'
p199
tp200
Rp201
sg30
g31
sg104
I0
sg105
S'2017.08.14 18:02:31'
p202
sa(dp203
g89
g90
(g94
S'\x00\x00\x00\x00\x00\x00D@'
p204
tp205
Rp206
sg100
g90
(g94
S'R\x99f\xaa\xf2\xd2\x16@'
p207
tp208
Rp209
sg30
g31
sg104
I0
sg105
S'2017.08.14 18:02:34'
p210
sa(dp211
g89
g90
(g94
S'\x00\x00\x00\x00\x00\x00>@'
p212
tp213
Rp214
sg100
g90
(g94
S'R\x99f\xaa\xf2\xd2\x16@'
p215
tp216
Rp217
sg30
g31
sg104
I0
sg105
S'2017.08.14 18:02:36'
p218
sa(dp219
g89
g90
(g94
S'\x00\x00\x00\x00\x00\x004@'
p220
tp221
Rp222
sg100
g90
(g94
S'R\x99f\xaa\xf2\xd2\x16@'
p223
tp224
Rp225
sg30
g31
sg104
I0
sg105
S'2017.08.14 18:02:39'
p226
sa(dp227
g89
g90
(g94
S'\x00\x00\x00\x00\x00\x80V@'
p228
tp229
Rp230
sg100
g90
(g94
S'I\xcayB|G @'
p231
tp232
Rp233
sg30
g31
sg104
I0
sg105
S'2017.08.14 18:02:42'
p234
sa(dp235
g89
g90
(g94
S'\x00\x00\x00\x00\x00\x00T@'
p236
tp237
Rp238
sg100
g90
(g94
S'I\xcayB|G @'
p239
tp240
Rp241
sg30
g31
sg104
I0
sg105
S'2017.08.14 18:02:45'
p242
sa(dp243
g89
g90
(g94
S'\x00\x00\x00\x00\x00\x80Q@'
p244
tp245
Rp246
sg100
g90
(g94
S'I\xcayB|G @'
p247
tp248
Rp249
sg30
g31
sg104
I0
sg105
S'2017.08.14 18:02:48'
p250
sa(dp251
g89
g90
(g94
S'\x00\x00\x00\x00\x00\x00N@'
p252
tp253
Rp254
sg100
g90
(g94
S'I\xcayB|G @'
p255
tp256
Rp257
sg30
g31
sg104
I0
sg105
S'2017.08.14 18:02:51'
p258
sa(dp259
g89
g90
(g94
S'\x00\x00\x00\x00\x00\x00I@'
p260
tp261
Rp262
sg100
g90
(g94
S'I\xcayB|G @'
p263
tp264
Rp265
sg30
g31
sg104
I0
sg105
S'2017.08.14 18:02:54'
p266
sa(dp267
g89
g90
(g94
S'\x00\x00\x00\x00\x00\x00D@'
p268
tp269
Rp270
sg100
g90
(g94
S'I\xcayB|G @'
p271
tp272
Rp273
sg30
g31
sg104
I0
sg105
S'2017.08.14 18:02:56'
p274
sa(dp275
g89
g90
(g94
S'\x00\x00\x00\x00\x00\x00>@'
p276
tp277
Rp278
sg100
g90
(g94
S'I\xcayB|G @'
p279
tp280
Rp281
sg30
g31
sg104
I0
sg105
S'2017.08.14 18:02:59'
p282
sa(dp283
g89
g90
(g94
S'\x00\x00\x00\x00\x00\x004@'
p284
tp285
Rp286
sg100
g90
(g94
S'I\xcayB|G @'
p287
tp288
Rp289
sg30
g31
sg104
I0
sg105
S'2017.08.14 18:03:03'
p290
sa(dp291
g89
g90
(g94
S'\x00\x00\x00\x00\x00\x80V@'
p292
tp293
Rp294
sg100
g90
(g94
S"\x11N\xe7\x00\xec8'@"
p295
tp296
Rp297
sg30
g31
sg104
I0
sg105
S'2017.08.14 18:03:06'
p298
sa(dp299
g89
g90
(g94
S'\x00\x00\x00\x00\x00\x00T@'
p300
tp301
Rp302
sg100
g90
(g94
S"\x11N\xe7\x00\xec8'@"
p303
tp304
Rp305
sg30
g31
sg104
I0
sg105
S'2017.08.14 18:03:09'
p306
sa(dp307
g89
g90
(g94
S'\x00\x00\x00\x00\x00\x80Q@'
p308
tp309
Rp310
sg100
g90
(g94
S"\x11N\xe7\x00\xec8'@"
p311
tp312
Rp313
sg30
g31
sg104
I0
sg105
S'2017.08.14 18:03:11'
p314
sa(dp315
g89
g90
(g94
S'\x00\x00\x00\x00\x00\x00N@'
p316
tp317
Rp318
sg100
g90
(g94
S"\x11N\xe7\x00\xec8'@"
p319
tp320
Rp321
sg30
g31
sg104
I0
sg105
S'2017.08.14 18:03:14'
p322
sa(dp323
g89
g90
(g94
S'\x00\x00\x00\x00\x00\x00I@'
p324
tp325
Rp326
sg100
g90
(g94
S"\x11N\xe7\x00\xec8'@"
p327
tp328
Rp329
sg30
g31
sg104
I0
sg105
S'2017.08.14 18:03:17'
p330
sa(dp331
g89
g90
(g94
S'\x00\x00\x00\x00\x00\x00D@'
p332
tp333
Rp334
sg100
g90
(g94
S"\x11N\xe7\x00\xec8'@"
p335
tp336
Rp337
sg30
g31
sg104
I0
sg105
S'2017.08.14 18:03:20'
p338
sa(dp339
g89
g90
(g94
S'\x00\x00\x00\x00\x00\x00>@'
p340
tp341
Rp342
sg100
g90
(g94
S"\x11N\xe7\x00\xec8'@"
p343
tp344
Rp345
sg30
g31
sg104
I0
sg105
S'2017.08.14 18:03:23'
p346
sa(dp347
g89
g90
(g94
S'\x00\x00\x00\x00\x00\x004@'
p348
tp349
Rp350
sg100
g90
(g94
S"\x11N\xe7\x00\xec8'@"
p351
tp352
Rp353
sg30
g31
sg104
I0
sg105
S'2017.08.14 18:03:26'
p354
sa(dp355
g89
g90
(g94
S'\x00\x00\x00\x00\x00\x80V@'
p356
tp357
Rp358
sg100
g90
(g94
S'\xe9\x94\x86\xe77\x900@'
p359
tp360
Rp361
sg30
g31
sg104
I0
sg105
S'2017.08.14 18:03:29'
p362
sa(dp363
g89
g90
(g94
S'\x00\x00\x00\x00\x00\x00T@'
p364
tp365
Rp366
sg100
g90
(g94
S'\xe9\x94\x86\xe77\x900@'
p367
tp368
Rp369
sg30
g31
sg104
I0
sg105
S'2017.08.14 18:03:31'
p370
sa(dp371
g89
g90
(g94
S'\x00\x00\x00\x00\x00\x80Q@'
p372
tp373
Rp374
sg100
g90
(g94
S'\xe9\x94\x86\xe77\x900@'
p375
tp376
Rp377
sg30
g31
sg104
I0
sg105
S'2017.08.14 18:03:34'
p378
sa(dp379
g89
g90
(g94
S'\x00\x00\x00\x00\x00\x00N@'
p380
tp381
Rp382
sg100
g90
(g94
S'\xe9\x94\x86\xe77\x900@'
p383
tp384
Rp385
sg30
g31
sg104
I0
sg105
S'2017.08.14 18:03:37'
p386
sa(dp387
g89
g90
(g94
S'\x00\x00\x00\x00\x00\x00I@'
p388
tp389
Rp390
sg100
g90
(g94
S'\xe9\x94\x86\xe77\x900@'
p391
tp392
Rp393
sg30
g31
sg104
I0
sg105
S'2017.08.14 18:03:40'
p394
sa(dp395
g89
g90
(g94
S'\x00\x00\x00\x00\x00\x00D@'
p396
tp397
Rp398
sg100
g90
(g94
S'\xe9\x94\x86\xe77\x900@'
p399
tp400
Rp401
sg30
g31
sg104
I0
sg105
S'2017.08.14 18:03:43'
p402
sa(dp403
g89
g90
(g94
S'\x00\x00\x00\x00\x00\x00>@'
p404
tp405
Rp406
sg100
g90
(g94
S'\xe9\x94\x86\xe77\x900@'
p407
tp408
Rp409
sg30
g31
sg104
I0
sg105
S'2017.08.14 18:03:46'
p410
sa(dp411
g89
g90
(g94
S'\x00\x00\x00\x00\x00\x004@'
p412
tp413
Rp414
sg100
g90
(g94
S'\xe9\x94\x86\xe77\x900@'
p415
tp416
Rp417
sg30
g31
sg104
I0
sg105
S'2017.08.14 18:03:48'
p418
sa(dp419
g89
g90
(g94
S'\x00\x00\x00\x00\x00\x80V@'
p420
tp421
Rp422
sg100
g90
(g94
S'\x0c\xe9\xcb\xf1\xac\xa07@'
p423
tp424
Rp425
sg30
g31
sg104
I0
sg105
S'2017.08.14 18:03:51'
p426
sa(dp427
g89
g90
(g94
S'\x00\x00\x00\x00\x00\x00T@'
p428
tp429
Rp430
sg100
g90
(g94
S'\x0c\xe9\xcb\xf1\xac\xa07@'
p431
tp432
Rp433
sg30
g31
sg104
I0
sg105
S'2017.08.14 18:03:54'
p434
sa(dp435
g89
g90
(g94
S'\x00\x00\x00\x00\x00\x80Q@'
p436
tp437
Rp438
sg100
g90
(g94
S'\x0c\xe9\xcb\xf1\xac\xa07@'
p439
tp440
Rp441
sg30
g31
sg104
I0
sg105
S'2017.08.14 18:03:57'
p442
sa(dp443
g89
g90
(g94
S'\x00\x00\x00\x00\x00\x00N@'
p444
tp445
Rp446
sg100
g90
(g94
S'\x0c\xe9\xcb\xf1\xac\xa07@'
p447
tp448
Rp449
sg30
g31
sg104
I0
sg105
S'2017.08.14 18:04:00'
p450
sa(dp451
g89
g90
(g94
S'\x00\x00\x00\x00\x00\x00I@'
p452
tp453
Rp454
sg100
g90
(g94
S'\x0c\xe9\xcb\xf1\xac\xa07@'
p455
tp456
Rp457
sg30
g31
sg104
I0
sg105
S'2017.08.14 18:04:03'
p458
sa(dp459
g89
g90
(g94
S'\x00\x00\x00\x00\x00\x00D@'
p460
tp461
Rp462
sg100
g90
(g94
S'\x0c\xe9\xcb\xf1\xac\xa07@'
p463
tp464
Rp465
sg30
g31
sg104
I0
sg105
S'2017.08.14 18:04:06'
p466
sa(dp467
g89
g90
(g94
S'\x00\x00\x00\x00\x00\x00>@'
p468
tp469
Rp470
sg100
g90
(g94
S'\x0c\xe9\xcb\xf1\xac\xa07@'
p471
tp472
Rp473
sg30
g31
sg104
I0
sg105
S'2017.08.14 18:04:08'
p474
sa(dp475
g89
g90
(g94
S'\x00\x00\x00\x00\x00\x004@'
p476
tp477
Rp478
sg100
g90
(g94
S'\x0c\xe9\xcb\xf1\xac\xa07@'
p479
tp480
Rp481
sg30
g31
sg104
I0
sg105
S'2017.08.14 18:04:11'
p482
sa(dp483
g89
g90
(g94
S'\x00\x00\x00\x00\x00\x80V@'
p484
tp485
Rp486
sg100
g90
(g94
S'\x1c7\x1c\x828\xda@@'
p487
tp488
Rp489
sg30
g31
sg104
I0
sg105
S'2017.08.14 18:04:14'
p490
sa(dp491
g89
g90
(g94
S'\x00\x00\x00\x00\x00\x00T@'
p492
tp493
Rp494
sg100
g90
(g94
S'\x1c7\x1c\x828\xda@@'
p495
tp496
Rp497
sg30
g31
sg104
I0
sg105
S'2017.08.14 18:04:17'
p498
sa(dp499
g89
g90
(g94
S'\x00\x00\x00\x00\x00\x80Q@'
p500
tp501
Rp502
sg100
g90
(g94
S'\x1c7\x1c\x828\xda@@'
p503
tp504
Rp505
sg30
g31
sg104
I0
sg105
S'2017.08.14 18:04:20'
p506
sa(dp507
g89
g90
(g94
S'\x00\x00\x00\x00\x00\x00N@'
p508
tp509
Rp510
sg100
g90
(g94
S'\x1c7\x1c\x828\xda@@'
p511
tp512
Rp513
sg30
g31
sg104
I0
sg105
S'2017.08.14 18:04:23'
p514
sa(dp515
g89
g90
(g94
S'\x00\x00\x00\x00\x00\x00I@'
p516
tp517
Rp518
sg100
g90
(g94
S'\x1c7\x1c\x828\xda@@'
p519
tp520
Rp521
sg30
g31
sg104
I0
sg105
S'2017.08.14 18:04:26'
p522
sa(dp523
g89
g90
(g94
S'\x00\x00\x00\x00\x00\x00D@'
p524
tp525
Rp526
sg100
g90
(g94
S'\x1c7\x1c\x828\xda@@'
p527
tp528
Rp529
sg30
g31
sg104
I0
sg105
S'2017.08.14 18:04:28'
p530
sa(dp531
g89
g90
(g94
S'\x00\x00\x00\x00\x00\x00>@'
p532
tp533
Rp534
sg100
g90
(g94
S'\x1c7\x1c\x828\xda@@'
p535
tp536
Rp537
sg30
g31
sg104
I0
sg105
S'2017.08.14 18:04:31'
p538
sa(dp539
g89
g90
(g94
S'\x00\x00\x00\x00\x00\x004@'
p540
tp541
Rp542
sg100
g90
(g94
S'\x1c7\x1c\x828\xda@@'
p543
tp544
Rp545
sg30
g31
sg104
I0
sg105
S'2017.08.14 18:04:34'
p546
sa(dp547
g89
g90
(g94
S'\x00\x00\x00\x00\x00\x80V@'
p548
tp549
Rp550
sg100
g90
(g94
S'\x0b\xd7\xa3p=\nH@'
p551
tp552
Rp553
sg30
g31
sg104
I0
sg105
S'2017.08.14 18:04:37'
p554
sa(dp555
g89
g90
(g94
S'\x00\x00\x00\x00\x00\x00T@'
p556
tp557
Rp558
sg100
g90
(g94
S'\x0b\xd7\xa3p=\nH@'
p559
tp560
Rp561
sg30
g31
sg104
I0
sg105
S'2017.08.14 18:04:40'
p562
sa(dp563
g89
g90
(g94
S'\x00\x00\x00\x00\x00\x80Q@'
p564
tp565
Rp566
sg100
g90
(g94
S'\x0b\xd7\xa3p=\nH@'
p567
tp568
Rp569
sg30
g31
sg104
I0
sg105
S'2017.08.14 18:04:42'
p570
sa(dp571
g89
g90
(g94
S'\x00\x00\x00\x00\x00\x00N@'
p572
tp573
Rp574
sg100
g90
(g94
S'\x0b\xd7\xa3p=\nH@'
p575
tp576
Rp577
sg30
g31
sg104
I0
sg105
S'2017.08.14 18:04:45'
p578
sa(dp579
g89
g90
(g94
S'\x00\x00\x00\x00\x00\x00I@'
p580
tp581
Rp582
sg100
g90
(g94
S'\x0b\xd7\xa3p=\nH@'
p583
tp584
Rp585
sg30
g31
sg104
I0
sg105
S'2017.08.14 18:04:48'
p586
sa(dp587
g89
g90
(g94
S'\x00\x00\x00\x00\x00\x00D@'
p588
tp589
Rp590
sg100
g90
(g94
S'\x0b\xd7\xa3p=\nH@'
p591
tp592
Rp593
sg30
g31
sg104
I0
sg105
S'2017.08.14 18:04:52'
p594
sa(dp595
g89
g90
(g94
S'\x00\x00\x00\x00\x00\x00>@'
p596
tp597
Rp598
sg100
g90
(g94
S'\x0b\xd7\xa3p=\nH@'
p599
tp600
Rp601
sg30
g31
sg104
I0
sg105
S'2017.08.14 18:04:54'
p602
sa(dp603
g89
g90
(g94
S'\x00\x00\x00\x00\x00\x004@'
p604
tp605
Rp606
sg100
g90
(g94
S'\x0b\xd7\xa3p=\nH@'
p607
tp608
Rp609
sg30
g31
sg104
I0
sg105
S'2017.08.14 18:04:58'
p610
sasS'FirstBlock'
p611
I0
sS'Params'
p612
g84
sS'StartTime'
p613
cdatetime
datetime
p614
(S'\x07\xe1\x08\x0e\x12\x019\x01\xc18'
p615
tp616
Rp617
sS'savedata'
p618
I01
sa.