(lp0
ccollections
OrderedDict
p1
((lp2
(lp3
S'IntensityMode'
p4
aS'attenuation'
p5
aa(lp6
S'Voltage_Scales'
p7
a(dp8
S'Tone_V'
p9
F10.0
sS'Click_V'
p10
F5.0
sS'maxTone_dB'
p11
(dp12
S'MF1'
p13
I110
sS'EC1'
p14
F83.9
ssS'Noise_V'
p15
F2.5
sS'maxNoise_dB'
p16
(dp17
g13
I0
sg14
I0
ssS'maxClick_dB'
p18
(dp19
g13
F108.5
sg14
F79.5
ssaa(lp20
S'Stimulus'
p21
a(dp22
S'Attenuator'
p23
F10.0
sS'Protocol'
p24
S'Click Search'
p25
sS'Intertrial Interval'
p26
F1.0
sS'Frequencies'
p27
S'4;48/8l'
p28
sS'Repetitions'
p29
I1
sS'Interstimulus Interval'
p30
F0.8
sS'Delay'
p31
F0.1
sS'Intensities'
p32
S'90;20/-10'
p33
sS'Duration'
p34
F2.5
sS'Tone Frequency'
p35
F4.0
sS'Rise-Fall'
p36
F2.5
saa(lp37
S'Clicks'
p38
a(dp39
g34
F0.0001
sS'Interval'
p40
F50.0
sS'Number'
p41
I4
saa(lp42
S'FMSweep'
p43
a(dp44
g34
F0.5
sS'Ramp Type'
p45
S'linear'
p46
sS'Freq Start'
p47
F4.0
sS'Freq End'
p48
F48.0
saa(lp49
S'Modulation/CMMR'
p50
a(dp51
S'CMMR Flanking Bands'
p52
I2
sS'CMMR Flanking Type'
p53
S'MultiTone'
p54
sS'Depth'
p55
F50.0
sS'Frequency'
p56
F40.0
sS'CMMR Flanking Phase'
p57
S'Comodulated'
p58
sS'CMMR Flanking Spacing'
p59
F1.0
saa(lp60
S'RSS Params'
p61
a(dp62
S'Octaves'
p63
F3.0
sS'Level SD'
p64
F12.0
sS'Spacing'
p65
I64
sS'CF'
p66
F16.0
sS'Grouping'
p67
I8
saa(lp68
S'Noise Bands'
p69
a(dp70
S'Notch BW'
p71
F1.0
sS'Type'
p72
S'Bandpass'
p73
sg66
F5.0
sS'Noise BW'
p74
F10.0
saa(lp75
S'Noise Train'
p76
a(dp77
g34
F0.2
sg40
F500.0
sg41
I5
saa(lp78
S'File From Disk'
p79
a(dp80
aatp81
Rp82
a(dp83
S'Trials'
p84
(lp85
(dp86
S'spl'
p87
F10.0
sS'freq'
p88
F4.0
sS'protocol'
p89
g25
sS'Block'
p90
I0
sS'Time'
p91
S'2018.01.29 14:29:14'
p92
sa(dp93
g87
F10.0
sg88
F4.0
sg89
g25
sg90
I0
sg91
S'2018.01.29 14:29:17'
p94
sa(dp95
g87
F10.0
sg88
F4.0
sg89
g25
sg90
I0
sg91
S'2018.01.29 14:29:21'
p96
sa(dp97
g87
F10.0
sg88
F4.0
sg89
g25
sg90
I0
sg91
S'2018.01.29 14:29:24'
p98
sa(dp99
g87
F10.0
sg88
F4.0
sg89
g25
sg90
I0
sg91
S'2018.01.29 14:29:27'
p100
sa(dp101
g87
F10.0
sg88
F4.0
sg89
g25
sg90
I0
sg91
S'2018.01.29 14:29:31'
p102
sa(dp103
g87
F10.0
sg88
F4.0
sg89
g25
sg90
I0
sg91
S'2018.01.29 14:29:34'
p104
sa(dp105
g87
F10.0
sg88
F4.0
sg89
g25
sg90
I0
sg91
S'2018.01.29 14:29:37'
p106
sasS'FirstBlock'
p107
I0
sS'Params'
p108
g82
sS'StartTime'
p109
cdatetime
datetime
p110
(S'\x07\xe2\x01\x1d\x0e\x1d\x0e\x061\xf0'
p111
tp112
Rp113
sS'savedata'
p114
I00
sa.