(lp0
ccollections
OrderedDict
p1
((lp2
(lp3
S'IntensityMode'
p4
aS'attenuation'
p5
aa(lp6
S'Voltage_Scales'
p7
a(dp8
S'Tone_V'
p9
F10.0
sS'Click_V'
p10
F5.0
sS'maxTone_dB'
p11
(dp12
S'MF1'
p13
I110
sS'EC1'
p14
F83.9
ssS'Noise_V'
p15
F2.5
sS'maxNoise_dB'
p16
(dp17
g13
I0
sg14
I0
ssS'maxClick_dB'
p18
(dp19
g13
F108.5
sg14
F79.5
ssaa(lp20
S'Stimulus'
p21
a(dp22
S'Attenuator'
p23
F50.0
sS'Protocol'
p24
S'Noise Search'
p25
sS'Intertrial Interval'
p26
F1.0
sS'Frequencies'
p27
S'4;48/8l'
p28
sS'Repetitions'
p29
I1
sS'Interstimulus Interval'
p30
F0.8
sS'Delay'
p31
F0.1
sS'Intensities'
p32
S'90;20/-10'
p33
sS'Duration'
p34
F1.2
sS'Tone Frequency'
p35
F4.0
sS'Rise-Fall'
p36
F2.5
saa(lp37
S'Clicks'
p38
a(dp39
g34
F0.0001
sS'Interval'
p40
F50.0
sS'Number'
p41
I4
saa(lp42
S'FMSweep'
p43
a(dp44
g34
F0.5
sS'Ramp Type'
p45
S'linear'
p46
sS'Freq Start'
p47
F4.0
sS'Freq End'
p48
F48.0
saa(lp49
S'Modulation/CMMR'
p50
a(dp51
S'CMMR Flanking Bands'
p52
I2
sS'CMMR Flanking Type'
p53
S'MultiTone'
p54
sS'Depth'
p55
F50.0
sS'Frequency'
p56
F40.0
sS'CMMR Flanking Phase'
p57
S'Comodulated'
p58
sS'CMMR Flanking Spacing'
p59
F1.0
saa(lp60
S'RSS Params'
p61
a(dp62
S'Octaves'
p63
F3.0
sS'Level SD'
p64
F12.0
sS'Spacing'
p65
I64
sS'CF'
p66
F16.0
sS'Grouping'
p67
I8
saa(lp68
S'Noise Bands'
p69
a(dp70
S'Notch BW'
p71
F1.0
sS'Type'
p72
S'Bandpass'
p73
sg66
F5.0
sS'Noise BW'
p74
F10.0
saa(lp75
S'Noise Train'
p76
a(dp77
g34
F0.1
sg40
F500.0
sg41
I1
saa(lp78
S'File From Disk'
p79
a(dp80
aatp81
Rp82
a(dp83
S'Trials'
p84
(lp85
(dp86
S'spl'
p87
F50.0
sS'freq'
p88
F4.0
sS'protocol'
p89
g25
sS'Block'
p90
I0
sS'Time'
p91
S'2018.02.21 16:00:39'
p92
sa(dp93
g87
F50.0
sg88
F4.0
sg89
g25
sg90
I0
sg91
S'2018.02.21 16:00:42'
p94
sa(dp95
g87
F50.0
sg88
F4.0
sg89
g25
sg90
I0
sg91
S'2018.02.21 16:00:45'
p96
sa(dp97
g87
F50.0
sg88
F4.0
sg89
g25
sg90
I0
sg91
S'2018.02.21 16:00:47'
p98
sa(dp99
g87
F50.0
sg88
F4.0
sg89
g25
sg90
I0
sg91
S'2018.02.21 16:00:50'
p100
sa(dp101
g87
F50.0
sg88
F4.0
sg89
g25
sg90
I0
sg91
S'2018.02.21 16:00:52'
p102
sa(dp103
g87
F50.0
sg88
F4.0
sg89
g25
sg90
I0
sg91
S'2018.02.21 16:00:55'
p104
sa(dp105
g87
F50.0
sg88
F4.0
sg89
g25
sg90
I0
sg91
S'2018.02.21 16:00:57'
p106
sa(dp107
g87
F50.0
sg88
F4.0
sg89
g25
sg90
I0
sg91
S'2018.02.21 16:01:00'
p108
sa(dp109
g87
F50.0
sg88
F4.0
sg89
g25
sg90
I0
sg91
S'2018.02.21 16:01:02'
p110
sa(dp111
g87
F50.0
sg88
F4.0
sg89
g25
sg90
I0
sg91
S'2018.02.21 16:01:05'
p112
sa(dp113
g87
F50.0
sg88
F4.0
sg89
g25
sg90
I0
sg91
S'2018.02.21 16:01:08'
p114
sa(dp115
g87
F50.0
sg88
F4.0
sg89
g25
sg90
I0
sg91
S'2018.02.21 16:01:10'
p116
sa(dp117
g87
F50.0
sg88
F4.0
sg89
g25
sg90
I0
sg91
S'2018.02.21 16:01:13'
p118
sa(dp119
g87
F50.0
sg88
F4.0
sg89
g25
sg90
I0
sg91
S'2018.02.21 16:01:15'
p120
sa(dp121
g87
F50.0
sg88
F4.0
sg89
g25
sg90
I0
sg91
S'2018.02.21 16:01:18'
p122
sa(dp123
g87
F50.0
sg88
F4.0
sg89
g25
sg90
I0
sg91
S'2018.02.21 16:01:21'
p124
sa(dp125
g87
F50.0
sg88
F4.0
sg89
g25
sg90
I0
sg91
S'2018.02.21 16:01:23'
p126
sa(dp127
g87
F50.0
sg88
F4.0
sg89
g25
sg90
I0
sg91
S'2018.02.21 16:01:26'
p128
sa(dp129
g87
F50.0
sg88
F4.0
sg89
g25
sg90
I0
sg91
S'2018.02.21 16:01:28'
p130
sa(dp131
g87
F50.0
sg88
F4.0
sg89
g25
sg90
I0
sg91
S'2018.02.21 16:01:31'
p132
sa(dp133
g87
F50.0
sg88
F4.0
sg89
g25
sg90
I0
sg91
S'2018.02.21 16:01:34'
p134
sa(dp135
g87
F50.0
sg88
F4.0
sg89
g25
sg90
I0
sg91
S'2018.02.21 16:01:36'
p136
sa(dp137
g87
F50.0
sg88
F4.0
sg89
g25
sg90
I0
sg91
S'2018.02.21 16:01:39'
p138
sa(dp139
g87
F50.0
sg88
F4.0
sg89
g25
sg90
I0
sg91
S'2018.02.21 16:01:41'
p140
sa(dp141
g87
F50.0
sg88
F4.0
sg89
g25
sg90
I0
sg91
S'2018.02.21 16:01:44'
p142
sa(dp143
g87
F50.0
sg88
F4.0
sg89
g25
sg90
I0
sg91
S'2018.02.21 16:01:46'
p144
sa(dp145
g87
F50.0
sg88
F4.0
sg89
g25
sg90
I0
sg91
S'2018.02.21 16:01:49'
p146
sa(dp147
g87
F50.0
sg88
F4.0
sg89
g25
sg90
I0
sg91
S'2018.02.21 16:01:51'
p148
sa(dp149
g87
F50.0
sg88
F4.0
sg89
g25
sg90
I0
sg91
S'2018.02.21 16:01:54'
p150
sa(dp151
g87
F50.0
sg88
F4.0
sg89
g25
sg90
I0
sg91
S'2018.02.21 16:01:56'
p152
sasS'FirstBlock'
p153
I0
sS'Params'
p154
g82
sS'StartTime'
p155
cdatetime
datetime
p156
(S"\x07\xe2\x02\x15\x10\x00'\x0eL("
p157
tp158
Rp159
sS'savedata'
p160
I00
sa.