(lp0
ccollections
OrderedDict
p1
((lp2
(lp3
S'IntensityMode'
p4
aS'attenuation'
p5
aa(lp6
S'Voltage_Scales'
p7
a(dp8
S'Tone_V'
p9
F10.0
sS'Click_V'
p10
F5.0
sS'maxTone_dB'
p11
(dp12
S'MF1'
p13
I110
sS'EC1'
p14
F83.9
ssS'Noise_V'
p15
F2.5
sS'maxNoise_dB'
p16
(dp17
g13
I0
sg14
I0
ssS'maxClick_dB'
p18
(dp19
g13
F108.5
sg14
F79.5
ssaa(lp20
S'Stimulus'
p21
a(dp22
S'Attenuator'
p23
F10.0
sS'Protocol'
p24
S'Clicks'
p25
sS'Intertrial Interval'
p26
F1.0
sS'Frequencies'
p27
S'4;48/8l'
p28
sS'Repetitions'
p29
I1
sS'Interstimulus Interval'
p30
F0.8
sS'Delay'
p31
F0.1
sS'Intensities'
p32
S'90;20/-10'
p33
sS'Duration'
p34
F1.06
sS'Tone Frequency'
p35
F4.0
sS'Rise-Fall'
p36
F2.5
saa(lp37
g25
a(dp38
g34
F0.0001
sS'Interval'
p39
F50.0
sS'Number'
p40
I4
saa(lp41
S'FMSweep'
p42
a(dp43
g34
F0.5
sS'Ramp Type'
p44
S'linear'
p45
sS'Freq Start'
p46
F4.0
sS'Freq End'
p47
F48.0
saa(lp48
S'Modulation/CMMR'
p49
a(dp50
S'CMMR Flanking Bands'
p51
I2
sS'CMMR Flanking Type'
p52
S'MultiTone'
p53
sS'Depth'
p54
F50.0
sS'Frequency'
p55
F40.0
sS'CMMR Flanking Phase'
p56
S'Comodulated'
p57
sS'CMMR Flanking Spacing'
p58
F1.0
saa(lp59
S'RSS Params'
p60
a(dp61
S'Octaves'
p62
F3.0
sS'Level SD'
p63
F12.0
sS'Spacing'
p64
I64
sS'CF'
p65
F16.0
sS'Grouping'
p66
I8
saa(lp67
S'Noise Bands'
p68
a(dp69
S'Notch BW'
p70
F1.0
sS'Type'
p71
S'Bandpass'
p72
sg65
F5.0
sS'Noise BW'
p73
F10.0
saa(lp74
S'File From Disk'
p75
a(dp76
aatp77
Rp78
a(dp79
S'Trials'
p80
(lp81
(dp82
S'spl'
p83
F10.0
sS'freq'
p84
F4.0
sS'protocol'
p85
g25
sS'Block'
p86
I81
sS'Time'
p87
S'2018.01.26 12:04:30'
p88
sa(dp89
g83
F10.0
sg84
F4.0
sg85
g25
sg86
I82
sg87
S'2018.01.26 12:04:33'
p90
sa(dp91
g83
F10.0
sg84
F4.0
sg85
g25
sg86
I83
sg87
S'2018.01.26 12:04:36'
p92
sa(dp93
g83
F10.0
sg84
F4.0
sg85
g25
sg86
I84
sg87
S'2018.01.26 12:04:38'
p94
sa(dp95
g83
F10.0
sg84
F4.0
sg85
g25
sg86
I85
sg87
S'2018.01.26 12:04:41'
p96
sa(dp97
g83
F10.0
sg84
F4.0
sg85
g25
sg86
I86
sg87
S'2018.01.26 12:04:44'
p98
sa(dp99
g83
F10.0
sg84
F4.0
sg85
g25
sg86
I87
sg87
S'2018.01.26 12:04:47'
p100
sa(dp101
g83
F10.0
sg84
F4.0
sg85
g25
sg86
I88
sg87
S'2018.01.26 12:04:50'
p102
sa(dp103
g83
F10.0
sg84
F4.0
sg85
g25
sg86
I89
sg87
S'2018.01.26 12:04:53'
p104
sa(dp105
g83
F10.0
sg84
F4.0
sg85
g25
sg86
I90
sg87
S'2018.01.26 12:04:56'
p106
sa(dp107
g83
F10.0
sg84
F4.0
sg85
g25
sg86
I91
sg87
S'2018.01.26 12:04:59'
p108
sa(dp109
g83
F10.0
sg84
F4.0
sg85
g25
sg86
I92
sg87
S'2018.01.26 12:05:01'
p110
sa(dp111
g83
F10.0
sg84
F4.0
sg85
g25
sg86
I93
sg87
S'2018.01.26 12:05:05'
p112
sa(dp113
g83
F10.0
sg84
F4.0
sg85
g25
sg86
I94
sg87
S'2018.01.26 12:05:08'
p114
sa(dp115
g83
F10.0
sg84
F4.0
sg85
g25
sg86
I95
sg87
S'2018.01.26 12:05:11'
p116
sa(dp117
g83
F10.0
sg84
F4.0
sg85
g25
sg86
I96
sg87
S'2018.01.26 12:05:14'
p118
sa(dp119
g83
F10.0
sg84
F4.0
sg85
g25
sg86
I97
sg87
S'2018.01.26 12:05:17'
p120
sa(dp121
g83
F10.0
sg84
F4.0
sg85
g25
sg86
I98
sg87
S'2018.01.26 12:05:20'
p122
sa(dp123
g83
F10.0
sg84
F4.0
sg85
g25
sg86
I99
sg87
S'2018.01.26 12:05:23'
p124
sa(dp125
g83
F10.0
sg84
F4.0
sg85
g25
sg86
I100
sg87
S'2018.01.26 12:05:25'
p126
sa(dp127
g83
F10.0
sg84
F4.0
sg85
g25
sg86
I101
sg87
S'2018.01.26 12:05:28'
p128
sa(dp129
g83
F10.0
sg84
F4.0
sg85
g25
sg86
I102
sg87
S'2018.01.26 12:05:31'
p130
sa(dp131
g83
F10.0
sg84
F4.0
sg85
g25
sg86
I103
sg87
S'2018.01.26 12:05:34'
p132
sa(dp133
g83
F10.0
sg84
F4.0
sg85
g25
sg86
I104
sg87
S'2018.01.26 12:05:37'
p134
sa(dp135
g83
F10.0
sg84
F4.0
sg85
g25
sg86
I105
sg87
S'2018.01.26 12:05:40'
p136
sa(dp137
g83
F10.0
sg84
F4.0
sg85
g25
sg86
I106
sg87
S'2018.01.26 12:05:43'
p138
sa(dp139
g83
F10.0
sg84
F4.0
sg85
g25
sg86
I107
sg87
S'2018.01.26 12:05:46'
p140
sa(dp141
g83
F10.0
sg84
F4.0
sg85
g25
sg86
I108
sg87
S'2018.01.26 12:05:49'
p142
sasS'FirstBlock'
p143
I81
sS'Params'
p144
g78
sS'StartTime'
p145
cdatetime
datetime
p146
(S'\x07\xe2\x01\x1a\x0c\x04\x1e\x07jp'
p147
tp148
Rp149
sS'savedata'
p150
I01
sa.