(lp0
ccollections
OrderedDict
p1
((lp2
(lp3
S'IntensityMode'
p4
aS'attenuation'
p5
aa(lp6
S'Voltage_Scales'
p7
a(dp8
S'Tone_V'
p9
F10.0
sS'Click_V'
p10
F5.0
sS'maxTone_dB'
p11
(dp12
S'MF1'
p13
I110
sS'EC1'
p14
F83.9
ssS'Noise_V'
p15
F2.5
sS'maxNoise_dB'
p16
(dp17
g13
I0
sg14
I0
ssS'maxClick_dB'
p18
(dp19
g13
F108.5
sg14
F79.5
ssaa(lp20
S'Stimulus'
p21
a(dp22
S'Attenuator'
p23
F10.0
sS'Protocol'
p24
S'Clicks'
p25
sS'Intertrial Interval'
p26
F1.0
sS'Frequencies'
p27
S'4;48/8l'
p28
sS'Repetitions'
p29
I1
sS'Interstimulus Interval'
p30
F0.8
sS'Delay'
p31
F0.1
sS'Intensities'
p32
S'90;20/-10'
p33
sS'Duration'
p34
F1.0
sS'Tone Frequency'
p35
F4.0
sS'Rise-Fall'
p36
F2.5
saa(lp37
g25
a(dp38
g34
F0.0001
sS'Interval'
p39
F50.0
sS'Number'
p40
I2
saa(lp41
S'FMSweep'
p42
a(dp43
g34
F0.5
sS'Ramp Type'
p44
S'linear'
p45
sS'Freq Start'
p46
F4.0
sS'Freq End'
p47
F48.0
saa(lp48
S'Modulation/CMMR'
p49
a(dp50
S'CMMR Flanking Bands'
p51
I2
sS'CMMR Flanking Type'
p52
S'MultiTone'
p53
sS'Depth'
p54
F50.0
sS'Frequency'
p55
F40.0
sS'CMMR Flanking Phase'
p56
S'Comodulated'
p57
sS'CMMR Flanking Spacing'
p58
F1.0
saa(lp59
S'RSS Params'
p60
a(dp61
S'Octaves'
p62
F3.0
sS'Level SD'
p63
F12.0
sS'Spacing'
p64
I64
sS'CF'
p65
F16.0
sS'Grouping'
p66
I8
saa(lp67
S'Noise Bands'
p68
a(dp69
S'Notch BW'
p70
F1.0
sS'Type'
p71
S'Bandpass'
p72
sg65
F5.0
sS'Noise BW'
p73
F10.0
saa(lp74
S'File From Disk'
p75
a(dp76
aatp77
Rp78
a(dp79
S'Trials'
p80
(lp81
(dp82
S'spl'
p83
F10.0
sS'freq'
p84
F4.0
sS'protocol'
p85
g25
sS'Block'
p86
I0
sS'Time'
p87
S'2018.01.26 12:11:45'
p88
sa(dp89
g83
F10.0
sg84
F4.0
sg85
g25
sg86
I0
sg87
S'2018.01.26 12:11:48'
p90
sa(dp91
g83
F10.0
sg84
F4.0
sg85
g25
sg86
I0
sg87
S'2018.01.26 12:11:51'
p92
sa(dp93
g83
F10.0
sg84
F4.0
sg85
g25
sg86
I0
sg87
S'2018.01.26 12:11:54'
p94
sa(dp95
g83
F10.0
sg84
F4.0
sg85
g25
sg86
I0
sg87
S'2018.01.26 12:11:57'
p96
sa(dp97
g83
F10.0
sg84
F4.0
sg85
g25
sg86
I0
sg87
S'2018.01.26 12:12:00'
p98
sa(dp99
g83
F10.0
sg84
F4.0
sg85
g25
sg86
I0
sg87
S'2018.01.26 12:12:02'
p100
sa(dp101
g83
F10.0
sg84
F4.0
sg85
g25
sg86
I0
sg87
S'2018.01.26 12:12:05'
p102
sa(dp103
g83
F10.0
sg84
F4.0
sg85
g25
sg86
I0
sg87
S'2018.01.26 12:12:08'
p104
sa(dp105
g83
F10.0
sg84
F4.0
sg85
g25
sg86
I0
sg87
S'2018.01.26 12:12:11'
p106
sa(dp107
g83
F10.0
sg84
F4.0
sg85
g25
sg86
I0
sg87
S'2018.01.26 12:12:14'
p108
sa(dp109
g83
F10.0
sg84
F4.0
sg85
g25
sg86
I0
sg87
S'2018.01.26 12:12:17'
p110
sa(dp111
g83
F10.0
sg84
F4.0
sg85
g25
sg86
I0
sg87
S'2018.01.26 12:12:20'
p112
sa(dp113
g83
F10.0
sg84
F4.0
sg85
g25
sg86
I0
sg87
S'2018.01.26 12:12:22'
p114
sa(dp115
g83
F10.0
sg84
F4.0
sg85
g25
sg86
I0
sg87
S'2018.01.26 12:12:25'
p116
sa(dp117
g83
F10.0
sg84
F4.0
sg85
g25
sg86
I0
sg87
S'2018.01.26 12:12:28'
p118
sa(dp119
g83
F10.0
sg84
F4.0
sg85
g25
sg86
I0
sg87
S'2018.01.26 12:12:31'
p120
sa(dp121
g83
F10.0
sg84
F4.0
sg85
g25
sg86
I0
sg87
S'2018.01.26 12:12:33'
p122
sa(dp123
g83
F10.0
sg84
F4.0
sg85
g25
sg86
I0
sg87
S'2018.01.26 12:12:36'
p124
sa(dp125
g83
F10.0
sg84
F4.0
sg85
g25
sg86
I0
sg87
S'2018.01.26 12:12:39'
p126
sa(dp127
g83
F10.0
sg84
F4.0
sg85
g25
sg86
I0
sg87
S'2018.01.26 12:12:42'
p128
sa(dp129
g83
F10.0
sg84
F4.0
sg85
g25
sg86
I0
sg87
S'2018.01.26 12:12:45'
p130
sa(dp131
g83
F10.0
sg84
F4.0
sg85
g25
sg86
I0
sg87
S'2018.01.26 12:12:48'
p132
sa(dp133
g83
F10.0
sg84
F4.0
sg85
g25
sg86
I0
sg87
S'2018.01.26 12:12:51'
p134
sa(dp135
g83
F10.0
sg84
F4.0
sg85
g25
sg86
I0
sg87
S'2018.01.26 12:12:53'
p136
sa(dp137
g83
F10.0
sg84
F4.0
sg85
g25
sg86
I0
sg87
S'2018.01.26 12:12:56'
p138
sa(dp139
g83
F10.0
sg84
F4.0
sg85
g25
sg86
I0
sg87
S'2018.01.26 12:12:59'
p140
sa(dp141
g83
F10.0
sg84
F4.0
sg85
g25
sg86
I0
sg87
S'2018.01.26 12:13:02'
p142
sa(dp143
g83
F10.0
sg84
F4.0
sg85
g25
sg86
I0
sg87
S'2018.01.26 12:13:05'
p144
sa(dp145
g83
F10.0
sg84
F4.0
sg85
g25
sg86
I0
sg87
S'2018.01.26 12:13:08'
p146
sa(dp147
g83
F10.0
sg84
F4.0
sg85
g25
sg86
I0
sg87
S'2018.01.26 12:13:11'
p148
sa(dp149
g83
F10.0
sg84
F4.0
sg85
g25
sg86
I0
sg87
S'2018.01.26 12:13:13'
p150
sa(dp151
g83
F10.0
sg84
F4.0
sg85
g25
sg86
I0
sg87
S'2018.01.26 12:13:17'
p152
sa(dp153
g83
F10.0
sg84
F4.0
sg85
g25
sg86
I0
sg87
S'2018.01.26 12:13:20'
p154
sa(dp155
g83
F10.0
sg84
F4.0
sg85
g25
sg86
I0
sg87
S'2018.01.26 12:13:23'
p156
sa(dp157
g83
F10.0
sg84
F4.0
sg85
g25
sg86
I0
sg87
S'2018.01.26 12:13:26'
p158
sa(dp159
g83
F10.0
sg84
F4.0
sg85
g25
sg86
I0
sg87
S'2018.01.26 12:13:28'
p160
sa(dp161
g83
F10.0
sg84
F4.0
sg85
g25
sg86
I0
sg87
S'2018.01.26 12:13:31'
p162
sa(dp163
g83
F10.0
sg84
F4.0
sg85
g25
sg86
I0
sg87
S'2018.01.26 12:13:34'
p164
sa(dp165
g83
F10.0
sg84
F4.0
sg85
g25
sg86
I0
sg87
S'2018.01.26 12:13:37'
p166
sa(dp167
g83
F10.0
sg84
F4.0
sg85
g25
sg86
I0
sg87
S'2018.01.26 12:13:41'
p168
sa(dp169
g83
F10.0
sg84
F4.0
sg85
g25
sg86
I0
sg87
S'2018.01.26 12:13:43'
p170
sa(dp171
g83
F10.0
sg84
F4.0
sg85
g25
sg86
I0
sg87
S'2018.01.26 12:13:47'
p172
sa(dp173
g83
F10.0
sg84
F4.0
sg85
g25
sg86
I0
sg87
S'2018.01.26 12:13:51'
p174
sa(dp175
g83
F10.0
sg84
F4.0
sg85
g25
sg86
I0
sg87
S'2018.01.26 12:13:53'
p176
sa(dp177
g83
F10.0
sg84
F4.0
sg85
g25
sg86
I0
sg87
S'2018.01.26 12:13:56'
p178
sa(dp179
g83
F10.0
sg84
F4.0
sg85
g25
sg86
I0
sg87
S'2018.01.26 12:14:00'
p180
sasS'FirstBlock'
p181
I0
sS'Params'
p182
g78
sS'StartTime'
p183
cdatetime
datetime
p184
(S'\x07\xe2\x01\x1a\x0c\x0b-\x0e_\xb0'
p185
tp186
Rp187
sS'savedata'
p188
I01
sa.