(lp0
ccollections
OrderedDict
p1
((lp2
(lp3
S'tone_frequency'
p4
aF4.0
aa(lp5
S'attn'
p6
aF20.0
aa(lp7
S'duration'
p8
aF0.2
aa(lp9
S'delay'
p10
aF0.01
aa(lp11
S'RI'
p12
aS'90;20/-10'
p13
aa(lp14
S'frequencies'
p15
aS'4;48/8l'
p16
aa(lp17
S'dMod'
p18
aF50.0
aa(lp19
S'fMod'
p20
aF40.0
aa(lp21
S'RF'
p22
aF2.5
aa(lp23
S'nreps'
p24
aI1
aa(lp25
S'interstimulus_interval'
p26
aF0.8
aa(lp27
S'intertrial_interval'
p28
aF1.0
aa(lp29
S'protocol'
p30
aS'One Tone'
p31
aa(lp32
S'randomize'
p33
aI00
aa(lp34
S'IntensityMode'
p35
aS'attenuation'
p36
aa(lp37
S'Voltage_Scales'
p38
a(dp39
S'Tone_V'
p40
F10.0
sS'Click_V'
p41
F5.0
sS'maxTone_dB'
p42
(dp43
S'MF1'
p44
I110
sS'EC1'
p45
F83.9
ssS'Noise_V'
p46
F2.5
sS'maxNoise_dB'
p47
(dp48
g44
I0
sg45
I0
ssS'maxClick_dB'
p49
(dp50
g44
F108.5
sg45
F79.5
ssaa(lp51
S'click_interval'
p52
aF50.0
aa(lp53
S'click_N'
p54
aI4
aa(lp55
S'click_duration'
p56
aF0.0001
aa(lp57
S'RSS_cf'
p58
aF16.0
aa(lp59
S'RSS_grouping'
p60
aI8
aa(lp61
S'RSS_octaves'
p62
aI3
aa(lp63
S'RSS_SD'
p64
aF12.0
aa(lp65
S'RSS_spacing'
p66
aI64
aa(lp67
S'FMSweep_duration'
p68
aF0.5
aa(lp69
S'FMSweep_ramptype'
p70
aS'linear'
p71
aa(lp72
S'FMSweep_f_start'
p73
aF4.0
aa(lp74
S'FMSweep_f_end'
p75
aF48.0
aa(lp76
S'CMMR_flanking_type'
p77
aS'None'
p78
aa(lp79
S'CMMR_flanking_bands'
p80
aI3
aa(lp81
S'CMMR_flanking_phase'
p82
aS'Codeviant'
p83
aa(lp84
S'CMMR_flanking_spacing'
p85
aI1
aatp86
Rp87
a(dp88
S'Trials'
p89
(lp90
(dp91
S'spl'
p92
F50.0
sS'freq'
p93
F4.0
sg30
g31
sS'Block'
p94
I0
sS'Time'
p95
S'2017.08.15 11:45:36'
p96
sasS'FirstBlock'
p97
I0
sS'Params'
p98
g87
sS'StartTime'
p99
cdatetime
datetime
p100
(S'\x07\xe1\x08\x0f\x0b-$\x03~\x88'
p101
tp102
Rp103
sS'savedata'
p104
I00
sa.