(lp0
ccollections
OrderedDict
p1
((lp2
(lp3
S'tone_frequency'
p4
aF4.0
aa(lp5
S'attn'
p6
aF35.0
aa(lp7
S'duration'
p8
aF0.2
aa(lp9
S'delay'
p10
aF0.01
aa(lp11
S'RI'
p12
aS'90;20/-10'
p13
aa(lp14
S'frequencies'
p15
aS'4;48/8l'
p16
aa(lp17
S'dMod'
p18
aF50.0
aa(lp19
S'fMod'
p20
aF40.0
aa(lp21
S'RF'
p22
aF2.5
aa(lp23
S'nreps'
p24
aI1
aa(lp25
S'interstimulus_interval'
p26
aF0.8
aa(lp27
S'intertrial_interval'
p28
aF1.0
aa(lp29
S'protocol'
p30
aS'Noise RI'
p31
aa(lp32
S'randomize'
p33
aI00
aa(lp34
S'IntensityMode'
p35
aS'attenuation'
p36
aa(lp37
S'Voltage_Scales'
p38
a(dp39
S'Tone_V'
p40
F10.0
sS'Click_V'
p41
F5.0
sS'maxTone_dB'
p42
(dp43
S'MF1'
p44
I110
sS'EC1'
p45
F83.9
ssS'Noise_V'
p46
F2.5
sS'maxNoise_dB'
p47
(dp48
g44
I0
sg45
I0
ssS'maxClick_dB'
p49
(dp50
g44
F108.5
sg45
F79.5
ssaa(lp51
S'click_interval'
p52
aF50.0
aa(lp53
S'click_N'
p54
aI4
aa(lp55
S'click_duration'
p56
aF0.0001
aa(lp57
S'RSS_cf'
p58
aF16.0
aa(lp59
S'RSS_grouping'
p60
aI8
aa(lp61
S'RSS_octaves'
p62
aI3
aa(lp63
S'RSS_SD'
p64
aF12.0
aa(lp65
S'RSS_spacing'
p66
aI64
aa(lp67
S'FMSweep_duration'
p68
aF0.5
aa(lp69
S'FMSweep_ramptype'
p70
aS'linear'
p71
aa(lp72
S'FMSweep_f_start'
p73
aF4.0
aa(lp74
S'FMSweep_f_end'
p75
aF48.0
aa(lp76
S'CMMR_flanking_bands'
p77
aI3
aa(lp78
S'CMMR_flanking_phase'
p79
aS'comodulated'
p80
aa(lp81
S'CMMR_flanking_spacing'
p82
aF0.5
aatp83
Rp84
a(dp85
S'Trials'
p86
(lp87
(dp88
S'spl'
p89
cnumpy.core.multiarray
scalar
p90
(cnumpy
dtype
p91
(S'f8'
p92
I0
I1
tp93
Rp94
(I3
S'<'
p95
NNNI-1
I-1
I0
tp96
bS'\x00\x00\x00\x00\x00\x80V@'
p97
tp98
Rp99
sS'freq'
p100
F4.0
sg30
g31
sS'Block'
p101
I0
sS'Time'
p102
S'2017.08.14 16:08:39'
p103
sa(dp104
g89
g90
(g94
S'\x00\x00\x00\x00\x00\x00T@'
p105
tp106
Rp107
sg100
F4.0
sg30
g31
sg101
I0
sg102
S'2017.08.14 16:08:42'
p108
sa(dp109
g89
g90
(g94
S'\x00\x00\x00\x00\x00\x80Q@'
p110
tp111
Rp112
sg100
F4.0
sg30
g31
sg101
I0
sg102
S'2017.08.14 16:08:45'
p113
sa(dp114
g89
g90
(g94
S'\x00\x00\x00\x00\x00\x00N@'
p115
tp116
Rp117
sg100
F4.0
sg30
g31
sg101
I0
sg102
S'2017.08.14 16:08:48'
p118
sa(dp119
g89
g90
(g94
S'\x00\x00\x00\x00\x00\x00I@'
p120
tp121
Rp122
sg100
F4.0
sg30
g31
sg101
I0
sg102
S'2017.08.14 16:08:50'
p123
sa(dp124
g89
g90
(g94
S'\x00\x00\x00\x00\x00\x00D@'
p125
tp126
Rp127
sg100
F4.0
sg30
g31
sg101
I0
sg102
S'2017.08.14 16:08:53'
p128
sa(dp129
g89
g90
(g94
S'\x00\x00\x00\x00\x00\x00>@'
p130
tp131
Rp132
sg100
F4.0
sg30
g31
sg101
I0
sg102
S'2017.08.14 16:08:56'
p133
sa(dp134
g89
g90
(g94
S'\x00\x00\x00\x00\x00\x004@'
p135
tp136
Rp137
sg100
F4.0
sg30
g31
sg101
I0
sg102
S'2017.08.14 16:08:59'
p138
sasS'FirstBlock'
p139
I0
sS'Params'
p140
g84
sS'StartTime'
p141
cdatetime
datetime
p142
(S"\x07\xe1\x08\x0e\x10\x08'\x08\x8b\x80"
p143
tp144
Rp145
sS'savedata'
p146
I01
sa.